target datalayout = "e-m:e-p270:32:32-p271:32:32-p272:64:64-i64:64-i128:128-f80:128-n8:16:32:64-S128"
target triple = "x86_64-unknown-linux-gnu"

%"class.std::__cxx11::basic_string" = type { %"struct.std::__cxx11::basic_string<char>::_Alloc_hider", i64, %union.anon }
%"struct.std::__cxx11::basic_string<char>::_Alloc_hider" = type { ptr }
%union.anon = type { i64, [8 x i8] }
%"class.rocksdb::InlineSkipList" = type { i16, i16, i32, ptr, ptr, ptr, %"struct.std::atomic", ptr }
%"struct.std::atomic" = type { %"struct.std::__atomic_base" }
%"struct.std::__atomic_base" = type { i32 }
%"class.rocksdb::MemTableRep::Iterator" = type { ptr }
%"class.rocksdb::InlineSkipList<const rocksdb::MemTableRep::KeyComparator &>::Iterator" = type { ptr, ptr }
%"struct.rocksdb::InlineSkipList<const rocksdb::MemTableRep::KeyComparator &>::Node" = type { [1 x %"struct.std::atomic.29"] }
%"struct.std::atomic.29" = type { %"struct.std::__atomic_base.30" }
%"struct.std::__atomic_base.30" = type { ptr }
%"class.rocksdb::(anonymous namespace)::SkipListRep::LookaheadIterator" = type { %"class.rocksdb::MemTableRep::Iterator", %"class.std::__cxx11::basic_string", ptr, %"class.rocksdb::InlineSkipList<const rocksdb::MemTableRep::KeyComparator &>::Iterator", %"class.rocksdb::InlineSkipList<const rocksdb::MemTableRep::KeyComparator &>::Iterator" }

; Function Attrs: mustprogress nounwind uwtable
define linkonce_odr noundef i32 @_ZStanSt12memory_orderSt23__memory_order_modifier(i32 noundef %__m, i32 noundef %__mod) #1 comdat {
entry:
  %__m.addr = alloca i32, align 4
  %__mod.addr = alloca i32, align 4
  store i32 %__m, ptr %__m.addr, align 4
  store i32 %__mod, ptr %__mod.addr, align 4
  %0 = load i32, ptr %__m.addr, align 4
  %1 = load i32, ptr %__mod.addr, align 4
  %and = and i32 %0, %1
  ret i32 %and
}

; Function Attrs: mustprogress nounwind uwtable
define linkonce_odr noundef ptr @_ZNKSt6atomicIPN7rocksdb14InlineSkipListIRKNS0_11MemTableRep13KeyComparatorEE4NodeEE4loadESt12memory_order(ptr noundef nonnull align 8 dereferenceable(8) %this, i32 noundef %__m) #1 comdat align 2 {
entry:
  %this.addr.i = alloca ptr, align 8
  %__m.addr.i = alloca i32, align 4
  %__b.i = alloca i32, align 4
  %atomic-temp.i = alloca ptr, align 8
  %this.addr = alloca ptr, align 8
  %__m.addr = alloca i32, align 4
  store ptr %this, ptr %this.addr, align 8
  store i32 %__m, ptr %__m.addr, align 4
  %this1 = load ptr, ptr %this.addr, align 8
  %_M_b = getelementptr inbounds %"struct.std::atomic.29", ptr %this1, i32 0, i32 0
  %0 = load i32, ptr %__m.addr, align 4
  store ptr %_M_b, ptr %this.addr.i, align 8
  store i32 %0, ptr %__m.addr.i, align 4
  %this1.i = load ptr, ptr %this.addr.i, align 8
  %1 = load i32, ptr %__m.addr.i, align 4
  %call.i = call noundef i32 @_ZStanSt12memory_orderSt23__memory_order_modifier(i32 noundef %1, i32 noundef 65535)
  store i32 %call.i, ptr %__b.i, align 4
  %2 = load i32, ptr %__m.addr.i, align 4
  switch i32 %2, label %monotonic.i [
    i32 1, label %acquire.i
    i32 2, label %acquire.i
    i32 5, label %seqcst.i
  ]

monotonic.i:                                      ; preds = %entry
  %3 = load atomic i64, ptr %this1.i monotonic, align 8
  store i64 %3, ptr %atomic-temp.i, align 8
  br label %_ZNKSt13__atomic_baseIPN7rocksdb14InlineSkipListIRKNS0_11MemTableRep13KeyComparatorEE4NodeEE4loadESt12memory_order.exit

acquire.i:                                        ; preds = %entry, %entry
  %4 = load atomic i64, ptr %this1.i acquire, align 8
  store i64 %4, ptr %atomic-temp.i, align 8
  br label %_ZNKSt13__atomic_baseIPN7rocksdb14InlineSkipListIRKNS0_11MemTableRep13KeyComparatorEE4NodeEE4loadESt12memory_order.exit

seqcst.i:                                         ; preds = %entry
  %5 = load atomic i64, ptr %this1.i seq_cst, align 8
  store i64 %5, ptr %atomic-temp.i, align 8
  br label %_ZNKSt13__atomic_baseIPN7rocksdb14InlineSkipListIRKNS0_11MemTableRep13KeyComparatorEE4NodeEE4loadESt12memory_order.exit

_ZNKSt13__atomic_baseIPN7rocksdb14InlineSkipListIRKNS0_11MemTableRep13KeyComparatorEE4NodeEE4loadESt12memory_order.exit: ; preds = %seqcst.i, %acquire.i, %monotonic.i
  %6 = load ptr, ptr %atomic-temp.i, align 8
  ret ptr %6
}

; Function Attrs: mustprogress nounwind uwtable
define linkonce_odr noundef ptr @_ZN7rocksdb14InlineSkipListIRKNS_11MemTableRep13KeyComparatorEE4Node4NextEi(ptr noundef nonnull align 8 dereferenceable(8) %this, i32 noundef %n) #1 comdat align 2 {
entry:
  %this.addr = alloca ptr, align 8
  %n.addr = alloca i32, align 4
  store ptr %this, ptr %this.addr, align 8
  store i32 %n, ptr %n.addr, align 4
  %this1 = load ptr, ptr %this.addr, align 8
  %next_ = getelementptr inbounds %"struct.rocksdb::InlineSkipList<const rocksdb::MemTableRep::KeyComparator &>::Node", ptr %this1, i32 0, i32 0
  %arrayidx = getelementptr inbounds [1 x %"struct.std::atomic.29"], ptr %next_, i64 0, i64 0
  %0 = load i32, ptr %n.addr, align 4
  %idx.ext = sext i32 %0 to i64
  %idx.neg = sub i64 0, %idx.ext
  %add.ptr = getelementptr inbounds %"struct.std::atomic.29", ptr %arrayidx, i64 %idx.neg
  %call = call noundef ptr @_ZNKSt6atomicIPN7rocksdb14InlineSkipListIRKNS0_11MemTableRep13KeyComparatorEE4NodeEE4loadESt12memory_order(ptr noundef nonnull align 8 dereferenceable(8) %add.ptr, i32 noundef 2) #3
  ret ptr %call
}

; Function Attrs: mustprogress nounwind uwtable
define linkonce_odr void @_ZN7rocksdb14InlineSkipListIRKNS_11MemTableRep13KeyComparatorEE8Iterator11SeekToFirstEv(ptr noundef nonnull align 8 dereferenceable(16) %this) #1 comdat align 2 {
entry:
  %this.addr = alloca ptr, align 8
  store ptr %this, ptr %this.addr, align 8
  %this1 = load ptr, ptr %this.addr, align 8
  %list_ = getelementptr inbounds %"class.rocksdb::InlineSkipList<const rocksdb::MemTableRep::KeyComparator &>::Iterator", ptr %this1, i32 0, i32 0
  %0 = load ptr, ptr %list_, align 8
  %head_ = getelementptr inbounds %"class.rocksdb::InlineSkipList", ptr %0, i32 0, i32 5
  %1 = load ptr, ptr %head_, align 8
  %call = call noundef ptr @_ZN7rocksdb14InlineSkipListIRKNS_11MemTableRep13KeyComparatorEE4Node4NextEi(ptr noundef nonnull align 8 dereferenceable(8) %1, i32 noundef 0)
  %node_ = getelementptr inbounds %"class.rocksdb::InlineSkipList<const rocksdb::MemTableRep::KeyComparator &>::Iterator", ptr %this1, i32 0, i32 1
  store ptr %call, ptr %node_, align 8
  ret void
}

; Function Attrs: mustprogress nounwind uwtable
define internal void @_ZN7rocksdb12_GLOBAL__N_111SkipListRep17LookaheadIterator11SeekToFirstEv(ptr noundef nonnull align 8 dereferenceable(80) %this) unnamed_addr #1 align 2 {
entry:
  %this.addr = alloca ptr, align 8
  store ptr %this, ptr %this.addr, align 8
  %this1 = load ptr, ptr %this.addr, align 8
  %iter_ = getelementptr inbounds %"class.rocksdb::(anonymous namespace)::SkipListRep::LookaheadIterator", ptr %this1, i32 0, i32 3
  call void @_ZN7rocksdb14InlineSkipListIRKNS_11MemTableRep13KeyComparatorEE8Iterator11SeekToFirstEv(ptr noundef nonnull align 8 dereferenceable(16) %iter_)
  %iter_2 = getelementptr inbounds %"class.rocksdb::(anonymous namespace)::SkipListRep::LookaheadIterator", ptr %this1, i32 0, i32 3
  %prev_ = getelementptr inbounds %"class.rocksdb::(anonymous namespace)::SkipListRep::LookaheadIterator", ptr %this1, i32 0, i32 4
  call void @llvm.memcpy.p0.p0.i64(ptr align 8 %prev_, ptr align 8 %iter_2, i64 16, i1 false)
  ret void
}