; Function Attrs: mustprogress nofree norecurse nounwind willreturn memory(readwrite, inaccessiblemem: none) uwtable
define internal void @_ZN7rocksdb12_GLOBAL__N_111SkipListRep17LookaheadIterator11SeekToFirstEv(ptr nocapture noundef nonnull align 8 dereferenceable(80) %this) unnamed_addr #13 align 2 {
entry:
  %iter_ = getelementptr inbounds i8, ptr %this, i64 48
  %0 = load ptr, ptr %iter_, align 8
  %head_.i = getelementptr inbounds i8, ptr %0, i64 24
  %1 = load ptr, ptr %head_.i, align 8
  %2 = load atomic i64, ptr %1 acquire, align 8
  %atomic-temp.i.0.i.i.i = inttoptr i64 %2 to ptr
  %node_.i = getelementptr inbounds i8, ptr %this, i64 56
  store ptr %atomic-temp.i.0.i.i.i, ptr %node_.i, align 8
  %prev_ = getelementptr inbounds i8, ptr %this, i64 64
  tail call void @llvm.memcpy.p0.p0.i64(ptr noundef nonnull align 8 dereferenceable(16) %prev_, ptr noundef nonnull align 8 dereferenceable(16) %iter_, i64 16, i1 false)
  ret void
}